; Function Attrs: nofree nounwind memory(readwrite, argmem: read) uwtable
define noalias noundef ptr @Abc_NtkDressMapClasses(ptr noundef readonly captures(none) %0, ptr noundef readonly captures(none) %1) local_unnamed_addr #4 {
  %calloc = tail call dereferenceable_or_null(16) ptr @calloc(i64 1, i64 16)
  %3 = getelementptr inbounds nuw i8, ptr %calloc, i64 4
  %4 = getelementptr i8, ptr %1, i64 32
  %.val36 = load ptr, ptr %4, align 8
  %5 = getelementptr i8, ptr %.val36, i64 4
  %.val36.val = load i32, ptr %5, align 4
  %.not.i.i = icmp sgt i32 %.val36.val, 0
  br i1 %.not.i.i, label %.lr.ph, label %Vec_IntFill.exit

Vec_IntFill.exit:                                 ; preds = %2
  store i32 %.val36.val, ptr %3, align 4
  br label %.critedge

.lr.ph:                                           ; preds = %2
  %6 = getelementptr inbounds nuw i8, ptr %calloc, i64 8
  %7 = zext nneg i32 %.val36.val to i64
  %8 = shl nuw nsw i64 %7, 2
  %9 = tail call noalias ptr @malloc(i64 noundef %8) #21
  store ptr %9, ptr %6, align 8
  store i32 %.val36.val, ptr %calloc, align 8
  tail call void @llvm.memset.p0.i64(ptr align 4 %9, i8 -1, i64 %8, i1 false)
  store i32 %.val36.val, ptr %3, align 4
  %10 = getelementptr i8, ptr %0, i64 256
  %.phi.trans.insert = getelementptr i8, ptr %.val36, i64 8
  %.val34.val.pre = load ptr, ptr %.phi.trans.insert, align 8
  %11 = zext nneg i32 %.val36.val to i64
  br label %12

12:                                               ; preds = %.lr.ph, %57
  %indvars.iv = phi i64 [ 0, %.lr.ph ], [ %indvars.iv.next, %57 ]
  %13 = getelementptr inbounds nuw ptr, ptr %.val34.val.pre, i64 %indvars.iv
  %14 = load ptr, ptr %13, align 8
  %15 = icmp eq ptr %14, null
  br i1 %15, label %57, label %16

16:                                               ; preds = %12
  %17 = getelementptr i8, ptr %14, i64 20
  %.val37 = load i32, ptr %17, align 4
  %18 = and i32 %.val37, 15
  %.not = icmp eq i32 %18, 7
  br i1 %.not, label %19, label %57

19:                                               ; preds = %16
  %20 = getelementptr inbounds nuw i8, ptr %14, i64 64
  %21 = load ptr, ptr %20, align 8
  %22 = ptrtoint ptr %21 to i64
  %23 = and i64 %22, -2
  %24 = inttoptr i64 %23 to ptr
  %.not27 = icmp eq i64 %23, 0
  br i1 %.not27, label %57, label %25

25:                                               ; preds = %19
  %26 = getelementptr i8, ptr %24, i64 20
  %.val35 = load i32, ptr %26, align 4
  %27 = and i32 %.val35, 15
  %.not28 = icmp eq i32 %27, 0
  br i1 %.not28, label %57, label %28

28:                                               ; preds = %25
  %29 = getelementptr inbounds nuw i8, ptr %24, i64 64
  %30 = load ptr, ptr %29, align 8
  %31 = ptrtoint ptr %30 to i64
  %32 = and i64 %31, -2
  %33 = inttoptr i64 %32 to ptr
  %.not29 = icmp eq i64 %32, 0
  br i1 %.not29, label %57, label %34

34:                                               ; preds = %28
  %35 = getelementptr i8, ptr %33, i64 24
  %.val38 = load i64, ptr %35, align 8
  %36 = and i64 %.val38, 7
  %.not30 = icmp eq i64 %36, 0
  br i1 %.not30, label %57, label %37

37:                                               ; preds = %34
  %38 = getelementptr inbounds nuw i8, ptr %33, i64 40
  %39 = load ptr, ptr %38, align 8
  %40 = ptrtoint ptr %39 to i64
  %41 = and i64 %40, -2
  %42 = inttoptr i64 %41 to ptr
  %.not31 = icmp eq i64 %41, 0
  br i1 %.not31, label %57, label %43

43:                                               ; preds = %37
  %44 = getelementptr i8, ptr %42, i64 24
  %.val39 = load i64, ptr %44, align 8
  %45 = and i64 %.val39, 7
  %.not32 = icmp eq i64 %45, 0
  br i1 %.not32, label %57, label %46

46:                                               ; preds = %43
  %.val40 = load ptr, ptr %10, align 8
  %.not.i = icmp eq ptr %.val40, null
  br i1 %.not.i, label %Aig_ObjRepr.exit, label %47

47:                                               ; preds = %46
  %48 = getelementptr inbounds nuw i8, ptr %42, i64 36
  %49 = load i32, ptr %48, align 4
  %50 = sext i32 %49 to i64
  %51 = getelementptr inbounds ptr, ptr %.val40, i64 %50
  %52 = load ptr, ptr %51, align 8
  br label %Aig_ObjRepr.exit

Aig_ObjRepr.exit:                                 ; preds = %46, %47
  %53 = phi ptr [ %52, %47 ], [ null, %46 ]
  %.not33 = icmp eq ptr %53, null
  %54 = select i1 %.not33, ptr %42, ptr %53
  %55 = getelementptr i8, ptr %54, i64 36
  %.val41 = load i32, ptr %55, align 4
  %56 = getelementptr inbounds nuw i32, ptr %9, i64 %indvars.iv
  store i32 %.val41, ptr %56, align 4
  br label %57

57:                                               ; preds = %16, %12, %Aig_ObjRepr.exit, %43, %37, %34, %28, %25, %19
  %indvars.iv.next = add nuw nsw i64 %indvars.iv, 1
  %58 = icmp samesign ult i64 %indvars.iv.next, %11
  br i1 %58, label %12, label %.critedge, !llvm.loop !11

.critedge:                                        ; preds = %57, %Vec_IntFill.exit
  ret ptr %calloc
}